target datalayout = "e-m:e-p270:32:32-p271:32:32-p272:64:64-i64:64-i128:128-f80:128-n8:16:32:64-S128"
target triple = "x86_64-pc-linux-gnu"

%struct.stbi__write_context = type { ptr, ptr }

@.str.5 = private unnamed_addr constant [3 x i8] c"wb\00", align 1

; Function Attrs: mustprogress nounwind uwtable
define internal void @_ZL27stbi__start_write_callbacksP19stbi__write_contextPFvPvS1_iES1_(ptr noundef %0, ptr noundef %1, ptr noundef %2) #1 {
  %4 = alloca ptr, align 8
  %5 = alloca ptr, align 8
  %6 = alloca ptr, align 8
  store ptr %0, ptr %4, align 8
  store ptr %1, ptr %5, align 8
  store ptr %2, ptr %6, align 8
  %7 = load ptr, ptr %5, align 8
  %8 = load ptr, ptr %4, align 8
  %9 = getelementptr inbounds %struct.stbi__write_context, ptr %8, i32 0, i32 0
  store ptr %7, ptr %9, align 8
  %10 = load ptr, ptr %6, align 8
  %11 = load ptr, ptr %4, align 8
  %12 = getelementptr inbounds %struct.stbi__write_context, ptr %11, i32 0, i32 1
  store ptr %10, ptr %12, align 8
  ret void
}

; Function Attrs: mustprogress uwtable
define internal void @_ZL20stbi__end_write_fileP19stbi__write_context(ptr noundef %0) #4 {
  %2 = alloca ptr, align 8
  store ptr %0, ptr %2, align 8
  %3 = load ptr, ptr %2, align 8
  %4 = getelementptr inbounds %struct.stbi__write_context, ptr %3, i32 0, i32 1
  %5 = load ptr, ptr %4, align 8
  %6 = call i32 @fclose(ptr noundef %5)
  ret void
}

; Function Attrs: mustprogress uwtable
define internal noundef i32 @_ZL22stbi__start_write_fileP19stbi__write_contextPKc(ptr noundef %0, ptr noundef %1) #4 {
  %3 = alloca ptr, align 8
  %4 = alloca ptr, align 8
  %5 = alloca ptr, align 8
  store ptr %0, ptr %3, align 8
  store ptr %1, ptr %4, align 8
  %6 = load ptr, ptr %4, align 8
  %7 = call noalias ptr @fopen(ptr noundef %6, ptr noundef @.str.5)
  store ptr %7, ptr %5, align 8
  %8 = load ptr, ptr %3, align 8
  %9 = load ptr, ptr %5, align 8
  call void @_ZL27stbi__start_write_callbacksP19stbi__write_contextPFvPvS1_iES1_(ptr noundef %8, ptr noundef @_ZL17stbi__stdio_writePvS_i, ptr noundef %9)
  %10 = load ptr, ptr %5, align 8
  %11 = icmp ne ptr %10, null
  %12 = zext i1 %11 to i32
  ret i32 %12
}

; Function Attrs: mustprogress uwtable
define dso_local i32 @stbi_write_hdr(ptr noundef %0, i32 noundef %1, i32 noundef %2, i32 noundef %3, ptr noundef %4) #4 {
  %6 = alloca i32, align 4
  %7 = alloca ptr, align 8
  %8 = alloca i32, align 4
  %9 = alloca i32, align 4
  %10 = alloca i32, align 4
  %11 = alloca ptr, align 8
  %12 = alloca %struct.stbi__write_context, align 8
  %13 = alloca i32, align 4
  store ptr %0, ptr %7, align 8
  store i32 %1, ptr %8, align 4
  store i32 %2, ptr %9, align 4
  store i32 %3, ptr %10, align 4
  store ptr %4, ptr %11, align 8
  %14 = load ptr, ptr %7, align 8
  %15 = call noundef i32 @_ZL22stbi__start_write_fileP19stbi__write_contextPKc(ptr noundef %12, ptr noundef %14)
  %16 = icmp ne i32 %15, 0
  br i1 %16, label %17, label %24

17:                                               ; preds = %5
  %18 = load i32, ptr %8, align 4
  %19 = load i32, ptr %9, align 4
  %20 = load i32, ptr %10, align 4
  %21 = load ptr, ptr %11, align 8
  %22 = call noundef i32 @_ZL19stbi_write_hdr_coreP19stbi__write_contextiiiPf(ptr noundef %12, i32 noundef %18, i32 noundef %19, i32 noundef %20, ptr noundef %21)
  store i32 %22, ptr %13, align 4
  call void @_ZL20stbi__end_write_fileP19stbi__write_context(ptr noundef %12)
  %23 = load i32, ptr %13, align 4
  store i32 %23, ptr %6, align 4
  br label %25

24:                                               ; preds = %5
  store i32 0, ptr %6, align 4
  br label %25

25:                                               ; preds = %24, %17
  %26 = load i32, ptr %6, align 4
  ret i32 %26
}